target datalayout = "e-m:e-p270:32:32-p271:32:32-p272:64:64-i64:64-i128:128-f80:128-n8:16:32:64-S128"
target triple = "x86_64-pc-linux-gnu"

@stderr = external global ptr, align 8
@stdout = external global ptr, align 8
@.str.32 = private unnamed_addr constant [48 x i8] c"Output before crash on stdout from crash test.\0A\00", align 1
@.str.33 = private unnamed_addr constant [48 x i8] c"Output before crash on stderr from crash test.\0A\00", align 1
@.str.34 = private unnamed_addr constant [47 x i8] c"Output after crash on stdout from crash test.\0A\00", align 1
@.str.35 = private unnamed_addr constant [47 x i8] c"Output after crash on stderr from crash test.\0A\00", align 1

; Function Attrs: nounwind uwtable
define internal i32 @test4(i32 noundef %0, ptr noundef %1) #0 {
  %3 = alloca i32, align 4
  %4 = alloca ptr, align 8
  %5 = alloca ptr, align 8
  store i32 %0, ptr %3, align 4, !tbaa !9
  store ptr %1, ptr %4, align 8, !tbaa !4
  call void @llvm.lifetime.start.p0(i64 8, ptr %5) #8
  store ptr null, ptr %5, align 8, !tbaa !26
  %6 = load i32, ptr %3, align 4, !tbaa !9
  %7 = icmp ne i32 %6, 0
  %8 = select i1 %7, i32 1, i32 2
  %9 = load ptr, ptr %5, align 8, !tbaa !26
  %10 = sext i32 %8 to i64
  %11 = getelementptr inbounds i32, ptr %9, i64 %10
  store ptr %11, ptr %5, align 8, !tbaa !26
  %12 = load ptr, ptr @stdout, align 8, !tbaa !15
  %13 = call i32 (ptr, ptr, ...) @fprintf(ptr noundef %12, ptr noundef @.str.32) #8
  %14 = load ptr, ptr @stderr, align 8, !tbaa !15
  %15 = call i32 (ptr, ptr, ...) @fprintf(ptr noundef %14, ptr noundef @.str.33) #8
  %16 = load ptr, ptr @stdout, align 8, !tbaa !15
  %17 = call i32 @fflush(ptr noundef %16)
  %18 = load ptr, ptr @stderr, align 8, !tbaa !15
  %19 = call i32 @fflush(ptr noundef %18)
  %20 = load ptr, ptr %5, align 8, !tbaa !26
  store volatile i32 0, ptr %20, align 4, !tbaa !9
  %21 = load ptr, ptr @stdout, align 8, !tbaa !15
  %22 = call i32 (ptr, ptr, ...) @fprintf(ptr noundef %21, ptr noundef @.str.34) #8
  %23 = load ptr, ptr @stderr, align 8, !tbaa !15
  %24 = call i32 (ptr, ptr, ...) @fprintf(ptr noundef %23, ptr noundef @.str.35) #8
  call void @llvm.lifetime.end.p0(i64 8, ptr %5) #8
  ret i32 0
}