; Function Attrs: cold nofree nounwind uwtable
define internal fastcc void @test4() unnamed_addr #5 {
  %1 = load ptr, ptr @stdout, align 8, !tbaa !4
  %2 = tail call i64 @fwrite(ptr nonnull @.str.32, i64 47, i64 1, ptr %1)
  %3 = load ptr, ptr @stderr, align 8, !tbaa !4
  %4 = tail call i64 @fwrite(ptr nonnull @.str.33, i64 47, i64 1, ptr %3) #14
  %5 = load ptr, ptr @stdout, align 8, !tbaa !4
  %6 = tail call i32 @fflush(ptr noundef %5)
  %7 = load ptr, ptr @stderr, align 8, !tbaa !4
  %8 = tail call i32 @fflush(ptr noundef %7)
  store volatile i32 0, ptr inttoptr (i64 4 to ptr), align 4, !tbaa !13
  %9 = load ptr, ptr @stdout, align 8, !tbaa !4
  %10 = tail call i64 @fwrite(ptr nonnull @.str.34, i64 46, i64 1, ptr %9)
  %11 = load ptr, ptr @stderr, align 8, !tbaa !4
  %12 = tail call i64 @fwrite(ptr nonnull @.str.35, i64 46, i64 1, ptr %11) #14
  ret void
}